target datalayout = "e-m:e-p270:32:32-p271:32:32-p272:64:64-i64:64-i128:128-f80:128-n8:16:32:64-S128"
target triple = "x86_64-pc-linux-gnu"

%struct.pmix_data_buffer = type { ptr, ptr, ptr, i64, i64 }

@.str.2 = private unnamed_addr constant [26 x i8] c"base/grpcomm_base_stubs.c\00", align 1
@.str.6 = private unnamed_addr constant [37 x i8] c"PMIX ERROR: %s in file %s at line %d\00", align 1

; Function Attrs: nounwind uwtable
define i32 @prte_pack_ctrl_options(ptr noundef %0, ptr noundef %1, i64 noundef %2) #0 {
  %4 = alloca i32, align 4
  %5 = alloca ptr, align 8
  %6 = alloca ptr, align 8
  %7 = alloca i64, align 8
  %8 = alloca %struct.pmix_data_buffer, align 8
  %9 = alloca i32, align 4
  %10 = alloca i32, align 4
  store ptr %0, ptr %5, align 8, !tbaa !167
  store ptr %1, ptr %6, align 8, !tbaa !169
  store i64 %2, ptr %7, align 8, !tbaa !39
  call void @llvm.lifetime.start.p0(i64 40, ptr %8) #12
  call void @llvm.lifetime.start.p0(i64 4, ptr %9) #12
  call void @PMIx_Data_buffer_construct(ptr noundef %8)
  %11 = call i32 @PMIx_Data_pack(ptr noundef null, ptr noundef %8, ptr noundef %7, i32 noundef 1, i16 noundef zeroext 4)
  store i32 %11, ptr %9, align 4, !tbaa !7
  %12 = load i32, ptr %9, align 4, !tbaa !7
  %13 = icmp ne i32 0, %12
  br i1 %13, label %14, label %25

14:                                               ; preds = %3
  br label %15

15:                                               ; preds = %14
  %16 = load i32, ptr %9, align 4, !tbaa !7
  %17 = icmp ne i32 -2, %16
  br i1 %17, label %18, label %21

18:                                               ; preds = %15
  %19 = load i32, ptr %9, align 4, !tbaa !7
  %20 = call ptr @PMIx_Error_string(i32 noundef %19)
  call void (i32, ptr, ...) @pmix_output(i32 noundef 0, ptr noundef @.str.6, ptr noundef %20, ptr noundef @.str.2, i32 noundef 581)
  br label %21

21:                                               ; preds = %18, %15
  br label %22

22:                                               ; preds = %21
  br label %23

23:                                               ; preds = %22
  call void @PMIx_Data_buffer_destruct(ptr noundef %8)
  %24 = load i32, ptr %9, align 4, !tbaa !7
  store i32 %24, ptr %4, align 4
  store i32 1, ptr %10, align 4
  br label %64

25:                                               ; preds = %3
  %26 = load i64, ptr %7, align 8, !tbaa !39
  %27 = icmp ult i64 0, %26
  br i1 %27, label %28, label %47

28:                                               ; preds = %25
  %29 = load ptr, ptr %6, align 8, !tbaa !169
  %30 = load i64, ptr %7, align 8, !tbaa !39
  %31 = trunc i64 %30 to i32
  %32 = call i32 @PMIx_Data_pack(ptr noundef null, ptr noundef %8, ptr noundef %29, i32 noundef %31, i16 noundef zeroext 24)
  store i32 %32, ptr %9, align 4, !tbaa !7
  %33 = load i32, ptr %9, align 4, !tbaa !7
  %34 = icmp ne i32 0, %33
  br i1 %34, label %35, label %46

35:                                               ; preds = %28
  br label %36

36:                                               ; preds = %35
  %37 = load i32, ptr %9, align 4, !tbaa !7
  %38 = icmp ne i32 -2, %37
  br i1 %38, label %39, label %42

39:                                               ; preds = %36
  %40 = load i32, ptr %9, align 4, !tbaa !7
  %41 = call ptr @PMIx_Error_string(i32 noundef %40)
  call void (i32, ptr, ...) @pmix_output(i32 noundef 0, ptr noundef @.str.6, ptr noundef %41, ptr noundef @.str.2, i32 noundef 588)
  br label %42

42:                                               ; preds = %39, %36
  br label %43

43:                                               ; preds = %42
  br label %44

44:                                               ; preds = %43
  call void @PMIx_Data_buffer_destruct(ptr noundef %8)
  %45 = load i32, ptr %9, align 4, !tbaa !7
  store i32 %45, ptr %4, align 4
  store i32 1, ptr %10, align 4
  br label %64

46:                                               ; preds = %28
  br label %47

47:                                               ; preds = %46, %25
  %48 = load ptr, ptr %5, align 8, !tbaa !167
  %49 = call i32 @PMIx_Data_unload(ptr noundef %8, ptr noundef %48)
  store i32 %49, ptr %9, align 4, !tbaa !7
  %50 = load i32, ptr %9, align 4, !tbaa !7
  %51 = icmp ne i32 0, %50
  br i1 %51, label %52, label %63

52:                                               ; preds = %47
  br label %53

53:                                               ; preds = %52
  %54 = load i32, ptr %9, align 4, !tbaa !7
  %55 = icmp ne i32 -2, %54
  br i1 %55, label %56, label %59

56:                                               ; preds = %53
  %57 = load i32, ptr %9, align 4, !tbaa !7
  %58 = call ptr @PMIx_Error_string(i32 noundef %57)
  call void (i32, ptr, ...) @pmix_output(i32 noundef 0, ptr noundef @.str.6, ptr noundef %58, ptr noundef @.str.2, i32 noundef 598)
  br label %59

59:                                               ; preds = %56, %53
  br label %60

60:                                               ; preds = %59
  br label %61

61:                                               ; preds = %60
  call void @PMIx_Data_buffer_destruct(ptr noundef %8)
  %62 = load i32, ptr %9, align 4, !tbaa !7
  store i32 %62, ptr %4, align 4
  store i32 1, ptr %10, align 4
  br label %64

63:                                               ; preds = %47
  call void @PMIx_Data_buffer_destruct(ptr noundef %8)
  store i32 0, ptr %4, align 4
  store i32 1, ptr %10, align 4
  br label %64

64:                                               ; preds = %63, %61, %44, %23
  call void @llvm.lifetime.end.p0(i64 4, ptr %9) #12
  call void @llvm.lifetime.end.p0(i64 40, ptr %8) #12
  %65 = load i32, ptr %4, align 4
  ret i32 %65
}