; Function Attrs: nounwind uwtable
define noundef i32 @prte_pack_ctrl_options(ptr noundef %0, ptr noundef %1, i64 noundef %2) local_unnamed_addr #0 {
  %4 = alloca i64, align 8
  %5 = alloca %struct.pmix_data_buffer, align 8
  store i64 %2, ptr %4, align 8, !tbaa !25
  call void @llvm.lifetime.start.p0(i64 40, ptr nonnull %5) #14
  call void @PMIx_Data_buffer_construct(ptr noundef nonnull %5) #14
  %6 = call i32 @PMIx_Data_pack(ptr noundef null, ptr noundef nonnull %5, ptr noundef nonnull %4, i32 noundef 1, i16 noundef zeroext 4) #14
  switch i32 %6, label %.sink.split [
    i32 0, label %7
    i32 -2, label %15
  ]

7:                                                ; preds = %3
  %8 = load i64, ptr %4, align 8, !tbaa !25
  %.not18 = icmp eq i64 %8, 0
  br i1 %.not18, label %12, label %9

9:                                                ; preds = %7
  %10 = trunc i64 %8 to i32
  %11 = call i32 @PMIx_Data_pack(ptr noundef null, ptr noundef nonnull %5, ptr noundef %1, i32 noundef %10, i16 noundef zeroext 24) #14
  switch i32 %11, label %.sink.split [
    i32 0, label %12
    i32 -2, label %15
  ]

12:                                               ; preds = %9, %7
  %13 = call i32 @PMIx_Data_unload(ptr noundef nonnull %5, ptr noundef %0) #14
  switch i32 %13, label %.sink.split [
    i32 0, label %15
    i32 -2, label %15
  ]

.sink.split:                                      ; preds = %12, %9, %3
  %.sink25 = phi i32 [ %6, %3 ], [ %11, %9 ], [ %13, %12 ]
  %.sink24 = phi i32 [ 581, %3 ], [ 588, %9 ], [ 598, %12 ]
  %14 = call ptr @PMIx_Error_string(i32 noundef %.sink25) #14
  call void (i32, ptr, ...) @pmix_output(i32 noundef 0, ptr noundef nonnull @.str.6, ptr noundef %14, ptr noundef nonnull @.str.2, i32 noundef %.sink24) #14
  br label %15

15:                                               ; preds = %.sink.split, %12, %12, %9, %3
  %.0 = phi i32 [ %6, %3 ], [ %11, %9 ], [ %13, %12 ], [ %13, %12 ], [ %.sink25, %.sink.split ]
  call void @PMIx_Data_buffer_destruct(ptr noundef nonnull %5) #14
  call void @llvm.lifetime.end.p0(i64 40, ptr nonnull %5) #14
  ret i32 %.0
}